target datalayout = "e-m:e-p270:32:32-p271:32:32-p272:64:64-i64:64-i128:128-f80:128-n8:16:32:64-S128"
target triple = "x86_64-pc-linux-gnu"

%struct.slurm_conf_t = type { i64, ptr, i16, ptr, ptr, ptr, ptr, ptr, i16, ptr, ptr, ptr, ptr, ptr, ptr, ptr, i16, ptr, ptr, ptr, ptr, i16, ptr, ptr, ptr, i64, ptr, ptr, ptr, ptr, i16, ptr, ptr, i16, i32, ptr, i32, ptr, i32, i32, ptr, ptr, i64, i64, ptr, i16, i16, ptr, i32, i32, ptr, i32, ptr, i32, i16, i16, i16, ptr, i16, i16, ptr, ptr, i32, i16, i16, ptr, i32, i16, ptr, ptr, ptr, ptr, i16, ptr, ptr, ptr, ptr, i32, ptr, ptr, ptr, ptr, i16, i16, ptr, i32, i32, i32, i16, i16, ptr, ptr, i16, ptr, ptr, i32, i32, i32, i32, i32, i64, i32, i32, i16, ptr, ptr, i32, ptr, ptr, ptr, i16, i32, ptr, ptr, i16, ptr, ptr, i32, i16, ptr, ptr, ptr, ptr, i32, i32, i16, i16, i32, ptr, i16, ptr, i32, i32, i32, i32, i32, i32, ptr, i16, ptr, ptr, i32, i16, ptr, i32, i16, i16, ptr, ptr, ptr, i16, ptr, ptr, ptr, ptr, i16, i16, ptr, i16, ptr, i16, ptr, i16, ptr, i16, ptr, ptr, ptr, ptr, i16, ptr, ptr, ptr, i32, ptr, i32, ptr, ptr, i16, ptr, ptr, i32, i16, ptr, ptr, i16, i16, ptr, i16, ptr, ptr, ptr, i32, ptr, i16, i16, ptr, ptr, ptr, ptr, ptr, ptr, ptr, ptr, i16, i32, i16, ptr, ptr, ptr, ptr, i32, ptr, ptr, ptr, i16, ptr, ptr, ptr, i16, ptr, i16, ptr, i16, i16, ptr }
%struct.build_valid_feature_set_args_t = type { ptr, ptr }
%struct.job_feature_t = type { ptr, i16, i8, i16, i8, ptr, ptr, i16 }

@plugin_type = dso_local constant [22 x i8] c"node_features/helpers\00", align 16
@slurm_conf = external global %struct.slurm_conf_t, align 8
@.str.51 = private unnamed_addr constant [45 x i8] c"%s: %s: NODE_FEATURES: Feature %s is invalid\00", align 1
@__func__._build_valid_feature_set = private unnamed_addr constant [25 x i8] c"_build_valid_feature_set\00", align 1

; Function Attrs: nounwind uwtable
define internal i32 @_build_valid_feature_set(ptr noundef %0, ptr noundef %1) #0 {
  %3 = alloca i32, align 4
  %4 = alloca ptr, align 8
  %5 = alloca ptr, align 8
  %6 = alloca ptr, align 8
  %7 = alloca ptr, align 8
  %8 = alloca i32, align 4
  store ptr %0, ptr %4, align 8
  store ptr %1, ptr %5, align 8
  call void @llvm.lifetime.start.p0(i64 8, ptr %6) #8
  %9 = load ptr, ptr %4, align 8
  store ptr %9, ptr %6, align 8
  call void @llvm.lifetime.start.p0(i64 8, ptr %7) #8
  %10 = load ptr, ptr %5, align 8
  store ptr %10, ptr %7, align 8
  %11 = load ptr, ptr %7, align 8
  %12 = getelementptr inbounds nuw %struct.build_valid_feature_set_args_t, ptr %11, i32 0, i32 1
  %13 = load ptr, ptr %12, align 8
  %14 = load ptr, ptr %6, align 8
  %15 = getelementptr inbounds nuw %struct.job_feature_t, ptr %14, i32 0, i32 6
  %16 = load ptr, ptr %15, align 8
  %17 = call i32 @bit_super_set(ptr noundef %13, ptr noundef %16)
  %18 = icmp ne i32 %17, 0
  br i1 %18, label %19, label %33

19:                                               ; preds = %2
  %20 = load ptr, ptr %6, align 8
  %21 = getelementptr inbounds nuw %struct.job_feature_t, ptr %20, i32 0, i32 2
  %22 = load i8, ptr %21, align 2, !range !12, !noundef !13
  %23 = trunc i8 %22 to i1
  br i1 %23, label %25, label %24

24:                                               ; preds = %19
  store i32 0, ptr %3, align 4
  store i32 1, ptr %8, align 4
  br label %53

25:                                               ; preds = %19
  %26 = load ptr, ptr %7, align 8
  %27 = getelementptr inbounds nuw %struct.build_valid_feature_set_args_t, ptr %26, i32 0, i32 0
  %28 = load ptr, ptr %27, align 8
  %29 = load ptr, ptr %6, align 8
  %30 = getelementptr inbounds nuw %struct.job_feature_t, ptr %29, i32 0, i32 0
  %31 = load ptr, ptr %30, align 8
  %32 = call ptr @xstrdup(ptr noundef %31)
  call void @list_append(ptr noundef %28, ptr noundef %32)
  br label %52

33:                                               ; preds = %2
  br label %34

34:                                               ; preds = %33
  %35 = load i64, ptr getelementptr inbounds nuw (%struct.slurm_conf_t, ptr @slurm_conf, i32 0, i32 42), align 8
  %36 = and i64 %35, 140737488355328
  %37 = icmp ne i64 %36, 0
  br i1 %37, label %38, label %49

38:                                               ; preds = %34
  br label %39

39:                                               ; preds = %38
  %40 = call i32 @get_log_level()
  %41 = icmp sge i32 %40, 4
  br i1 %41, label %42, label %46

42:                                               ; preds = %39
  %43 = load ptr, ptr %6, align 8
  %44 = getelementptr inbounds nuw %struct.job_feature_t, ptr %43, i32 0, i32 0
  %45 = load ptr, ptr %44, align 8
  call void (i32, ptr, ...) @log_var(i32 noundef 4, ptr noundef @.str.51, ptr noundef @plugin_type, ptr noundef @__func__._build_valid_feature_set, ptr noundef %45)
  br label %46

46:                                               ; preds = %42, %39
  br label %47

47:                                               ; preds = %46
  br label %48

48:                                               ; preds = %47
  br label %49

49:                                               ; preds = %48, %34
  br label %50

50:                                               ; preds = %49
  br label %51

51:                                               ; preds = %50
  store i32 -1, ptr %3, align 4
  store i32 1, ptr %8, align 4
  br label %53

52:                                               ; preds = %25
  store i32 0, ptr %3, align 4
  store i32 1, ptr %8, align 4
  br label %53

53:                                               ; preds = %52, %51, %24
  call void @llvm.lifetime.end.p0(i64 8, ptr %7) #8
  call void @llvm.lifetime.end.p0(i64 8, ptr %6) #8
  %54 = load i32, ptr %3, align 4
  ret i32 %54
}