; Function Attrs: nounwind uwtable
define internal range(i32 -1, 1) i32 @_build_valid_feature_set(ptr noundef readonly captures(none) %0, ptr noundef readonly captures(none) %1) #0 {
  %3 = getelementptr inbounds nuw i8, ptr %1, i64 8
  %4 = load ptr, ptr %3, align 8
  %5 = getelementptr inbounds nuw i8, ptr %0, i64 24
  %6 = load ptr, ptr %5, align 8
  %7 = tail call i32 @bit_super_set(ptr noundef %4, ptr noundef %6) #10
  %.not = icmp eq i32 %7, 0
  br i1 %.not, label %16, label %8

8:                                                ; preds = %2
  %9 = getelementptr inbounds nuw i8, ptr %0, i64 10
  %10 = load i8, ptr %9, align 2, !range !25, !noundef !26
  %11 = trunc nuw i8 %10 to i1
  br i1 %11, label %12, label %24

12:                                               ; preds = %8
  %13 = load ptr, ptr %1, align 8
  %14 = load ptr, ptr %0, align 8
  %15 = tail call ptr @xstrdup(ptr noundef %14) #10
  tail call void @list_append(ptr noundef %13, ptr noundef %15) #10
  br label %24

16:                                               ; preds = %2
  %17 = load i64, ptr getelementptr inbounds nuw (i8, ptr @slurm_conf, i64 320), align 8
  %18 = and i64 %17, 140737488355328
  %.not8 = icmp eq i64 %18, 0
  br i1 %.not8, label %24, label %19

19:                                               ; preds = %16
  %20 = tail call i32 @get_log_level() #10
  %21 = icmp sgt i32 %20, 3
  br i1 %21, label %22, label %24

22:                                               ; preds = %19
  %23 = load ptr, ptr %0, align 8
  tail call void (i32, ptr, ...) @log_var(i32 noundef 4, ptr noundef nonnull @.str.51, ptr noundef nonnull @plugin_type, ptr noundef nonnull @__func__._build_valid_feature_set, ptr noundef %23) #10
  br label %24

24:                                               ; preds = %16, %22, %19, %8, %12
  %.0 = phi i32 [ 0, %12 ], [ 0, %8 ], [ -1, %19 ], [ -1, %22 ], [ -1, %16 ]
  ret i32 %.0
}